target datalayout = "e-m:e-p270:32:32-p271:32:32-p272:64:64-i64:64-i128:128-f80:128-n8:16:32:64-S128"
target triple = "x86_64-pc-linux-gnu"

%struct.expert_field = type { i32, i32 }

@hf_openflow_v6_match_type = internal global i32 0, align 4
@hf_openflow_v6_match_length = internal global i32 0, align 4
@hf_openflow_v6_match_pad = internal global i32 0, align 4
@ett_openflow_v6_match = internal global i32 0, align 4
@ei_openflow_v6_match_undecoded = internal global %struct.expert_field zeroinitializer, align 4
@.str.1031 = private unnamed_addr constant [20 x i8] c"Unknown match body.\00", align 1
@ei_openflow_v6_length_too_short = internal global %struct.expert_field zeroinitializer, align 4
@.str.1581 = private unnamed_addr constant [6 x i8] c"Match\00", align 1
@.str.1582 = private unnamed_addr constant [34 x i8] c"Standard match body (deprecated).\00", align 1

; Function Attrs: null_pointer_is_valid sspstrong uwtable
define internal i32 @dissect_openflow_match_v6(ptr noundef %0, ptr noundef %1, ptr noundef %2, i32 noundef %3, i16 noundef zeroext %4) #0 {
  %6 = alloca i32, align 4
  %7 = alloca ptr, align 8
  %8 = alloca ptr, align 8
  %9 = alloca ptr, align 8
  %10 = alloca i32, align 4
  %11 = alloca i16, align 2
  %12 = alloca ptr, align 8
  %13 = alloca ptr, align 8
  %14 = alloca i32, align 4
  %15 = alloca i16, align 2
  %16 = alloca i32, align 4
  %17 = alloca i16, align 2
  %18 = alloca i32, align 4
  store ptr %0, ptr %7, align 8
  store ptr %1, ptr %8, align 8
  store ptr %2, ptr %9, align 8
  store i32 %3, ptr %10, align 4
  store i16 %4, ptr %11, align 2
  call void @llvm.lifetime.start.p0(i64 8, ptr %12) #5
  call void @llvm.lifetime.start.p0(i64 8, ptr %13) #5
  call void @llvm.lifetime.start.p0(i64 4, ptr %14) #5
  call void @llvm.lifetime.start.p0(i64 2, ptr %15) #5
  call void @llvm.lifetime.start.p0(i64 4, ptr %16) #5
  call void @llvm.lifetime.start.p0(i64 2, ptr %17) #5
  %19 = load ptr, ptr %9, align 8
  %20 = load ptr, ptr %7, align 8
  %21 = load i32, ptr %10, align 4
  %22 = load i32, ptr @ett_openflow_v6_match, align 4
  %23 = call ptr @proto_tree_add_subtree(ptr noundef %19, ptr noundef %20, i32 noundef %21, i32 noundef -1, i32 noundef %22, ptr noundef %12, ptr noundef @.str.1581)
  store ptr %23, ptr %13, align 8
  %24 = load ptr, ptr %13, align 8
  %25 = load i32, ptr @hf_openflow_v6_match_type, align 4
  %26 = load ptr, ptr %7, align 8
  %27 = load i32, ptr %10, align 4
  %28 = call ptr @proto_tree_add_item_ret_uint(ptr noundef %24, i32 noundef %25, ptr noundef %26, i32 noundef %27, i32 noundef 2, i32 noundef 0, ptr noundef %14)
  %29 = load i32, ptr %10, align 4
  %30 = add i32 %29, 2
  store i32 %30, ptr %10, align 4
  %31 = load ptr, ptr %7, align 8
  %32 = load i32, ptr %10, align 4
  %33 = call zeroext i16 @tvb_get_ntohs(ptr noundef %31, i32 noundef %32)
  store i16 %33, ptr %15, align 2
  %34 = load i16, ptr %15, align 2
  %35 = zext i16 %34 to i32
  %36 = add i32 %35, 7
  %37 = sdiv i32 %36, 8
  %38 = mul i32 %37, 8
  %39 = load i16, ptr %15, align 2
  %40 = zext i16 %39 to i32
  %41 = sub i32 %38, %40
  %42 = trunc i32 %41 to i16
  store i16 %42, ptr %17, align 2
  %43 = load ptr, ptr %12, align 8
  %44 = load i16, ptr %15, align 2
  %45 = zext i16 %44 to i32
  %46 = load i16, ptr %17, align 2
  %47 = zext i16 %46 to i32
  %48 = add i32 %45, %47
  call void @proto_item_set_len(ptr noundef %43, i32 noundef %48)
  %49 = load ptr, ptr %13, align 8
  %50 = load i32, ptr @hf_openflow_v6_match_length, align 4
  %51 = load ptr, ptr %7, align 8
  %52 = load i32, ptr %10, align 4
  %53 = call ptr @proto_tree_add_item(ptr noundef %49, i32 noundef %50, ptr noundef %51, i32 noundef %52, i32 noundef 2, i32 noundef 0)
  store ptr %53, ptr %12, align 8
  %54 = load i32, ptr %10, align 4
  %55 = add i32 %54, 2
  store i32 %55, ptr %10, align 4
  %56 = load i16, ptr %15, align 2
  %57 = zext i16 %56 to i32
  %58 = icmp slt i32 %57, 4
  br i1 %58, label %59, label %64

59:                                               ; preds = %5
  %60 = load ptr, ptr %8, align 8
  %61 = load ptr, ptr %12, align 8
  %62 = call ptr @expert_add_info(ptr noundef %60, ptr noundef %61, ptr noundef @ei_openflow_v6_length_too_short)
  %63 = load i32, ptr %10, align 4
  store i32 %63, ptr %6, align 4
  store i32 1, ptr %18, align 4
  br label %130

64:                                               ; preds = %5
  %65 = load i32, ptr %14, align 4
  switch i32 %65, label %98 [
    i32 0, label %66
    i32 1, label %80
  ]

66:                                               ; preds = %64
  %67 = load ptr, ptr %13, align 8
  %68 = load ptr, ptr %8, align 8
  %69 = load ptr, ptr %7, align 8
  %70 = load i32, ptr %10, align 4
  %71 = load i16, ptr %15, align 2
  %72 = zext i16 %71 to i32
  %73 = sub i32 %72, 4
  %74 = call ptr (ptr, ptr, ptr, ptr, i32, i32, ptr, ...) @proto_tree_add_expert_format(ptr noundef %67, ptr noundef %68, ptr noundef @ei_openflow_v6_match_undecoded, ptr noundef %69, i32 noundef %70, i32 noundef %73, ptr noundef @.str.1582)
  %75 = load i16, ptr %15, align 2
  %76 = zext i16 %75 to i32
  %77 = sub i32 %76, 4
  %78 = load i32, ptr %10, align 4
  %79 = add i32 %78, %77
  store i32 %79, ptr %10, align 4
  br label %112

80:                                               ; preds = %64
  %81 = load i32, ptr %10, align 4
  %82 = load i16, ptr %15, align 2
  %83 = zext i16 %82 to i32
  %84 = add i32 %81, %83
  %85 = sub i32 %84, 4
  store i32 %85, ptr %16, align 4
  br label %86

86:                                               ; preds = %90, %80
  %87 = load i32, ptr %10, align 4
  %88 = load i32, ptr %16, align 4
  %89 = icmp slt i32 %87, %88
  br i1 %89, label %90, label %97

90:                                               ; preds = %86
  %91 = load ptr, ptr %7, align 8
  %92 = load ptr, ptr %8, align 8
  %93 = load ptr, ptr %13, align 8
  %94 = load i32, ptr %10, align 4
  %95 = load i16, ptr %11, align 2
  %96 = call i32 @dissect_openflow_oxm_v6(ptr noundef %91, ptr noundef %92, ptr noundef %93, i32 noundef %94, i16 noundef zeroext %95)
  store i32 %96, ptr %10, align 4
  br label %86, !llvm.loop !33

97:                                               ; preds = %86
  br label %112

98:                                               ; preds = %64
  %99 = load ptr, ptr %13, align 8
  %100 = load ptr, ptr %8, align 8
  %101 = load ptr, ptr %7, align 8
  %102 = load i32, ptr %10, align 4
  %103 = load i16, ptr %15, align 2
  %104 = zext i16 %103 to i32
  %105 = sub i32 %104, 4
  %106 = call ptr (ptr, ptr, ptr, ptr, i32, i32, ptr, ...) @proto_tree_add_expert_format(ptr noundef %99, ptr noundef %100, ptr noundef @ei_openflow_v6_match_undecoded, ptr noundef %101, i32 noundef %102, i32 noundef %105, ptr noundef @.str.1031)
  %107 = load i16, ptr %15, align 2
  %108 = zext i16 %107 to i32
  %109 = sub i32 %108, 4
  %110 = load i32, ptr %10, align 4
  %111 = add i32 %110, %109
  store i32 %111, ptr %10, align 4
  br label %112

112:                                              ; preds = %98, %97, %66
  %113 = load i16, ptr %17, align 2
  %114 = zext i16 %113 to i32
  %115 = icmp sgt i32 %114, 0
  br i1 %115, label %116, label %128

116:                                              ; preds = %112
  %117 = load ptr, ptr %13, align 8
  %118 = load i32, ptr @hf_openflow_v6_match_pad, align 4
  %119 = load ptr, ptr %7, align 8
  %120 = load i32, ptr %10, align 4
  %121 = load i16, ptr %17, align 2
  %122 = zext i16 %121 to i32
  %123 = call ptr @proto_tree_add_item(ptr noundef %117, i32 noundef %118, ptr noundef %119, i32 noundef %120, i32 noundef %122, i32 noundef 0)
  %124 = load i16, ptr %17, align 2
  %125 = zext i16 %124 to i32
  %126 = load i32, ptr %10, align 4
  %127 = add i32 %126, %125
  store i32 %127, ptr %10, align 4
  br label %128

128:                                              ; preds = %116, %112
  %129 = load i32, ptr %10, align 4
  store i32 %129, ptr %6, align 4
  store i32 1, ptr %18, align 4
  br label %130

130:                                              ; preds = %128, %59
  call void @llvm.lifetime.end.p0(i64 2, ptr %17) #5
  call void @llvm.lifetime.end.p0(i64 4, ptr %16) #5
  call void @llvm.lifetime.end.p0(i64 2, ptr %15) #5
  call void @llvm.lifetime.end.p0(i64 4, ptr %14) #5
  call void @llvm.lifetime.end.p0(i64 8, ptr %13) #5
  call void @llvm.lifetime.end.p0(i64 8, ptr %12) #5
  %131 = load i32, ptr %6, align 4
  ret i32 %131
}