; Function Attrs: null_pointer_is_valid sspstrong uwtable
define internal fastcc i32 @dissect_openflow_match_v6(ptr noundef %0, ptr noundef %1, ptr noundef %2, i32 noundef %3) unnamed_addr #0 {
  %5 = alloca ptr, align 8
  %6 = alloca i32, align 4
  call void @llvm.lifetime.start.p0(i64 8, ptr nonnull %5) #4
  call void @llvm.lifetime.start.p0(i64 4, ptr nonnull %6) #4
  %7 = load i32, ptr @ett_openflow_v6_match, align 4
  %8 = call ptr @proto_tree_add_subtree(ptr noundef %2, ptr noundef %0, i32 noundef %3, i32 noundef -1, i32 noundef %7, ptr noundef nonnull %5, ptr noundef nonnull @.str.1581)
  %9 = load i32, ptr @hf_openflow_v6_match_type, align 4
  %10 = call ptr @proto_tree_add_item_ret_uint(ptr noundef %8, i32 noundef %9, ptr noundef %0, i32 noundef %3, i32 noundef 2, i32 noundef 0, ptr noundef nonnull %6)
  %11 = add i32 %3, 2
  %12 = call zeroext i16 @tvb_get_ntohs(ptr noundef %0, i32 noundef %11)
  %13 = zext i16 %12 to i32
  %14 = add i16 %12, 7
  %15 = and i16 %14, -8
  %16 = sub i16 %15, %12
  %17 = load ptr, ptr %5, align 8
  %18 = zext i16 %16 to i32
  %19 = add nuw nsw i32 %18, %13
  call void @proto_item_set_len(ptr noundef %17, i32 noundef %19)
  %20 = load i32, ptr @hf_openflow_v6_match_length, align 4
  %21 = call ptr @proto_tree_add_item(ptr noundef %8, i32 noundef %20, ptr noundef %0, i32 noundef %11, i32 noundef 2, i32 noundef 0)
  store ptr %21, ptr %5, align 8
  %22 = add i32 %3, 4
  %23 = icmp ult i16 %12, 4
  br i1 %23, label %24, label %26

24:                                               ; preds = %4
  %25 = call ptr @expert_add_info(ptr noundef %1, ptr noundef %21, ptr noundef nonnull @ei_openflow_v6_length_too_short)
  br label %41

26:                                               ; preds = %4
  %27 = load i32, ptr %6, align 4
  switch i32 %27, label %33 [
    i32 0, label %.loopexit.sink.split
    i32 1, label %28
  ]

28:                                               ; preds = %26
  %29 = add i32 %3, %13
  %30 = icmp slt i32 %22, %29
  br i1 %30, label %.lr.ph, label %.loopexit

.lr.ph:                                           ; preds = %28, %.lr.ph
  %.154 = phi i32 [ %31, %.lr.ph ], [ %22, %28 ]
  %31 = call fastcc i32 @dissect_openflow_oxm_v6(ptr noundef %0, ptr noundef %1, ptr noundef %8, i32 noundef %.154)
  %32 = icmp slt i32 %31, %29
  br i1 %32, label %.lr.ph, label %.loopexit, !llvm.loop !40

33:                                               ; preds = %26
  br label %.loopexit.sink.split

.loopexit.sink.split:                             ; preds = %26, %33
  %.str.1031.sink = phi ptr [ @.str.1031, %33 ], [ @.str.1582, %26 ]
  %34 = add nsw i32 %13, -4
  %35 = call ptr (ptr, ptr, ptr, ptr, i32, i32, ptr, ...) @proto_tree_add_expert_format(ptr noundef %8, ptr noundef %1, ptr noundef nonnull @ei_openflow_v6_match_undecoded, ptr noundef %0, i32 noundef %22, i32 noundef %34, ptr noundef nonnull %.str.1031.sink)
  %36 = add i32 %3, %13
  br label %.loopexit

.loopexit:                                        ; preds = %.lr.ph, %.loopexit.sink.split, %28
  %.051 = phi i32 [ %22, %28 ], [ %36, %.loopexit.sink.split ], [ %31, %.lr.ph ]
  %.not = icmp eq i16 %15, %12
  br i1 %.not, label %41, label %37

37:                                               ; preds = %.loopexit
  %38 = load i32, ptr @hf_openflow_v6_match_pad, align 4
  %39 = call ptr @proto_tree_add_item(ptr noundef %8, i32 noundef %38, ptr noundef %0, i32 noundef %.051, i32 noundef %18, i32 noundef 0)
  %40 = add i32 %.051, %18
  br label %41

41:                                               ; preds = %.loopexit, %37, %24
  %.0 = phi i32 [ %22, %24 ], [ %40, %37 ], [ %.051, %.loopexit ]
  call void @llvm.lifetime.end.p0(i64 4, ptr nonnull %6) #4
  call void @llvm.lifetime.end.p0(i64 8, ptr nonnull %5) #4
  ret i32 %.0
}